target datalayout = "e-m:e-p270:32:32-p271:32:32-p272:64:64-i64:64-i128:128-f80:128-n8:16:32:64-S128"
target triple = "x86_64-pc-linux-gnu"

%struct.JSValue = type { %union.JSValueUnion, i64 }
%union.JSValueUnion = type { double }
%struct.JSRefCountHeader = type { i32 }

@.str.11 = private unnamed_addr constant [4 x i8] c"log\00", align 1
@.str.12 = private unnamed_addr constant [8 x i8] c"console\00", align 1
@.str.13 = private unnamed_addr constant [11 x i8] c"scriptArgs\00", align 1
@.str.14 = private unnamed_addr constant [6 x i8] c"print\00", align 1
@.str.15 = private unnamed_addr constant [13 x i8] c"__loadScript\00", align 1

; Function Attrs: nounwind uwtable
define internal void @JS_FreeValue(ptr noundef %0, i64 %1, i64 %2) #0 {
  %4 = alloca %struct.JSValue, align 8
  %5 = alloca ptr, align 8
  %6 = alloca ptr, align 8
  %7 = getelementptr inbounds { i64, i64 }, ptr %4, i32 0, i32 0
  store i64 %1, ptr %7, align 8
  %8 = getelementptr inbounds { i64, i64 }, ptr %4, i32 0, i32 1
  store i64 %2, ptr %8, align 8
  store ptr %0, ptr %5, align 8
  %9 = getelementptr inbounds %struct.JSValue, ptr %4, i32 0, i32 1
  %10 = load i64, ptr %9, align 8
  %11 = trunc i64 %10 to i32
  %12 = icmp uge i32 %11, -11
  br i1 %12, label %13, label %28

13:                                               ; preds = %3
  %14 = getelementptr inbounds %struct.JSValue, ptr %4, i32 0, i32 0
  %15 = load ptr, ptr %14, align 8
  store ptr %15, ptr %6, align 8
  %16 = load ptr, ptr %6, align 8
  %17 = getelementptr inbounds %struct.JSRefCountHeader, ptr %16, i32 0, i32 0
  %18 = load i32, ptr %17, align 4
  %19 = add i32 %18, -1
  store i32 %19, ptr %17, align 4
  %20 = icmp sle i32 %19, 0
  br i1 %20, label %21, label %27

21:                                               ; preds = %13
  %22 = load ptr, ptr %5, align 8
  %23 = getelementptr inbounds { i64, i64 }, ptr %4, i32 0, i32 0
  %24 = load i64, ptr %23, align 8
  %25 = getelementptr inbounds { i64, i64 }, ptr %4, i32 0, i32 1
  %26 = load i64, ptr %25, align 8
  call void @__JS_FreeValue(ptr noundef %22, i64 %24, i64 %26)
  br label %27

27:                                               ; preds = %21, %13
  br label %28

28:                                               ; preds = %27, %3
  ret void
}

; Function Attrs: nounwind uwtable
define internal { i64, i64 } @JS_NewCFunction(ptr noundef %0, ptr noundef %1, ptr noundef %2, i32 noundef %3) #0 {
  %5 = alloca %struct.JSValue, align 8
  %6 = alloca ptr, align 8
  %7 = alloca ptr, align 8
  %8 = alloca ptr, align 8
  %9 = alloca i32, align 4
  store ptr %0, ptr %6, align 8
  store ptr %1, ptr %7, align 8
  store ptr %2, ptr %8, align 8
  store i32 %3, ptr %9, align 4
  %10 = load ptr, ptr %6, align 8
  %11 = load ptr, ptr %7, align 8
  %12 = load ptr, ptr %8, align 8
  %13 = load i32, ptr %9, align 4
  %14 = call { i64, i64 } @JS_NewCFunction2(ptr noundef %10, ptr noundef %11, ptr noundef %12, i32 noundef %13, i32 noundef 0, i32 noundef 0)
  %15 = getelementptr inbounds { i64, i64 }, ptr %5, i32 0, i32 0
  %16 = extractvalue { i64, i64 } %14, 0
  store i64 %16, ptr %15, align 8
  %17 = getelementptr inbounds { i64, i64 }, ptr %5, i32 0, i32 1
  %18 = extractvalue { i64, i64 } %14, 1
  store i64 %18, ptr %17, align 8
  %19 = load { i64, i64 }, ptr %5, align 8
  ret { i64, i64 } %19
}

; Function Attrs: nounwind uwtable
define dso_local void @js_std_add_helpers(ptr noundef %0, i32 noundef %1, ptr noundef %2) #0 {
  %4 = alloca ptr, align 8
  %5 = alloca i32, align 4
  %6 = alloca ptr, align 8
  %7 = alloca %struct.JSValue, align 8
  %8 = alloca %struct.JSValue, align 8
  %9 = alloca %struct.JSValue, align 8
  %10 = alloca i32, align 4
  %11 = alloca %struct.JSValue, align 8
  %12 = alloca %struct.JSValue, align 8
  %13 = alloca %struct.JSValue, align 8
  %14 = alloca %struct.JSValue, align 8
  %15 = alloca %struct.JSValue, align 8
  %16 = alloca %struct.JSValue, align 8
  %17 = alloca %struct.JSValue, align 8
  store ptr %0, ptr %4, align 8
  store i32 %1, ptr %5, align 4
  store ptr %2, ptr %6, align 8
  %18 = load ptr, ptr %4, align 8
  %19 = call { i64, i64 } @JS_GetGlobalObject(ptr noundef %18)
  %20 = getelementptr inbounds { i64, i64 }, ptr %11, i32 0, i32 0
  %21 = extractvalue { i64, i64 } %19, 0
  store i64 %21, ptr %20, align 8
  %22 = getelementptr inbounds { i64, i64 }, ptr %11, i32 0, i32 1
  %23 = extractvalue { i64, i64 } %19, 1
  store i64 %23, ptr %22, align 8
  call void @llvm.memcpy.p0.p0.i64(ptr align 8 %7, ptr align 8 %11, i64 16, i1 false)
  %24 = load ptr, ptr %4, align 8
  %25 = call { i64, i64 } @JS_NewObject(ptr noundef %24)
  %26 = getelementptr inbounds { i64, i64 }, ptr %12, i32 0, i32 0
  %27 = extractvalue { i64, i64 } %25, 0
  store i64 %27, ptr %26, align 8
  %28 = getelementptr inbounds { i64, i64 }, ptr %12, i32 0, i32 1
  %29 = extractvalue { i64, i64 } %25, 1
  store i64 %29, ptr %28, align 8
  call void @llvm.memcpy.p0.p0.i64(ptr align 8 %8, ptr align 8 %12, i64 16, i1 false)
  %30 = load ptr, ptr %4, align 8
  %31 = load ptr, ptr %4, align 8
  %32 = call { i64, i64 } @JS_NewCFunction(ptr noundef %31, ptr noundef @js_print, ptr noundef @.str.11, i32 noundef 1)
  %33 = getelementptr inbounds { i64, i64 }, ptr %13, i32 0, i32 0
  %34 = extractvalue { i64, i64 } %32, 0
  store i64 %34, ptr %33, align 8
  %35 = getelementptr inbounds { i64, i64 }, ptr %13, i32 0, i32 1
  %36 = extractvalue { i64, i64 } %32, 1
  store i64 %36, ptr %35, align 8
  %37 = getelementptr inbounds { i64, i64 }, ptr %8, i32 0, i32 0
  %38 = load i64, ptr %37, align 8
  %39 = getelementptr inbounds { i64, i64 }, ptr %8, i32 0, i32 1
  %40 = load i64, ptr %39, align 8
  %41 = getelementptr inbounds { i64, i64 }, ptr %13, i32 0, i32 0
  %42 = load i64, ptr %41, align 8
  %43 = getelementptr inbounds { i64, i64 }, ptr %13, i32 0, i32 1
  %44 = load i64, ptr %43, align 8
  %45 = call i32 @JS_SetPropertyStr(ptr noundef %30, i64 %38, i64 %40, ptr noundef @.str.11, i64 %42, i64 %44)
  %46 = load ptr, ptr %4, align 8
  %47 = getelementptr inbounds { i64, i64 }, ptr %7, i32 0, i32 0
  %48 = load i64, ptr %47, align 8
  %49 = getelementptr inbounds { i64, i64 }, ptr %7, i32 0, i32 1
  %50 = load i64, ptr %49, align 8
  %51 = getelementptr inbounds { i64, i64 }, ptr %8, i32 0, i32 0
  %52 = load i64, ptr %51, align 8
  %53 = getelementptr inbounds { i64, i64 }, ptr %8, i32 0, i32 1
  %54 = load i64, ptr %53, align 8
  %55 = call i32 @JS_SetPropertyStr(ptr noundef %46, i64 %48, i64 %50, ptr noundef @.str.12, i64 %52, i64 %54)
  %56 = load i32, ptr %5, align 4
  %57 = icmp sge i32 %56, 0
  br i1 %57, label %58, label %106

58:                                               ; preds = %3
  %59 = load ptr, ptr %4, align 8
  %60 = call { i64, i64 } @JS_NewArray(ptr noundef %59)
  %61 = getelementptr inbounds { i64, i64 }, ptr %14, i32 0, i32 0
  %62 = extractvalue { i64, i64 } %60, 0
  store i64 %62, ptr %61, align 8
  %63 = getelementptr inbounds { i64, i64 }, ptr %14, i32 0, i32 1
  %64 = extractvalue { i64, i64 } %60, 1
  store i64 %64, ptr %63, align 8
  call void @llvm.memcpy.p0.p0.i64(ptr align 8 %9, ptr align 8 %14, i64 16, i1 false)
  store i32 0, ptr %10, align 4
  br label %65

65:                                               ; preds = %92, %58
  %66 = load i32, ptr %10, align 4
  %67 = load i32, ptr %5, align 4
  %68 = icmp slt i32 %66, %67
  br i1 %68, label %69, label %95

69:                                               ; preds = %65
  %70 = load ptr, ptr %4, align 8
  %71 = load i32, ptr %10, align 4
  %72 = load ptr, ptr %4, align 8
  %73 = load ptr, ptr %6, align 8
  %74 = load i32, ptr %10, align 4
  %75 = sext i32 %74 to i64
  %76 = getelementptr ptr, ptr %73, i64 %75
  %77 = load ptr, ptr %76, align 8
  %78 = call { i64, i64 } @JS_NewString(ptr noundef %72, ptr noundef %77)
  %79 = getelementptr inbounds { i64, i64 }, ptr %15, i32 0, i32 0
  %80 = extractvalue { i64, i64 } %78, 0
  store i64 %80, ptr %79, align 8
  %81 = getelementptr inbounds { i64, i64 }, ptr %15, i32 0, i32 1
  %82 = extractvalue { i64, i64 } %78, 1
  store i64 %82, ptr %81, align 8
  %83 = getelementptr inbounds { i64, i64 }, ptr %9, i32 0, i32 0
  %84 = load i64, ptr %83, align 8
  %85 = getelementptr inbounds { i64, i64 }, ptr %9, i32 0, i32 1
  %86 = load i64, ptr %85, align 8
  %87 = getelementptr inbounds { i64, i64 }, ptr %15, i32 0, i32 0
  %88 = load i64, ptr %87, align 8
  %89 = getelementptr inbounds { i64, i64 }, ptr %15, i32 0, i32 1
  %90 = load i64, ptr %89, align 8
  %91 = call i32 @JS_SetPropertyUint32(ptr noundef %70, i64 %84, i64 %86, i32 noundef %71, i64 %88, i64 %90)
  br label %92

92:                                               ; preds = %69
  %93 = load i32, ptr %10, align 4
  %94 = add i32 %93, 1
  store i32 %94, ptr %10, align 4
  br label %65, !llvm.loop !7

95:                                               ; preds = %65
  %96 = load ptr, ptr %4, align 8
  %97 = getelementptr inbounds { i64, i64 }, ptr %7, i32 0, i32 0
  %98 = load i64, ptr %97, align 8
  %99 = getelementptr inbounds { i64, i64 }, ptr %7, i32 0, i32 1
  %100 = load i64, ptr %99, align 8
  %101 = getelementptr inbounds { i64, i64 }, ptr %9, i32 0, i32 0
  %102 = load i64, ptr %101, align 8
  %103 = getelementptr inbounds { i64, i64 }, ptr %9, i32 0, i32 1
  %104 = load i64, ptr %103, align 8
  %105 = call i32 @JS_SetPropertyStr(ptr noundef %96, i64 %98, i64 %100, ptr noundef @.str.13, i64 %102, i64 %104)
  br label %106

106:                                              ; preds = %95, %3
  %107 = load ptr, ptr %4, align 8
  %108 = load ptr, ptr %4, align 8
  %109 = call { i64, i64 } @JS_NewCFunction(ptr noundef %108, ptr noundef @js_print, ptr noundef @.str.14, i32 noundef 1)
  %110 = getelementptr inbounds { i64, i64 }, ptr %16, i32 0, i32 0
  %111 = extractvalue { i64, i64 } %109, 0
  store i64 %111, ptr %110, align 8
  %112 = getelementptr inbounds { i64, i64 }, ptr %16, i32 0, i32 1
  %113 = extractvalue { i64, i64 } %109, 1
  store i64 %113, ptr %112, align 8
  %114 = getelementptr inbounds { i64, i64 }, ptr %7, i32 0, i32 0
  %115 = load i64, ptr %114, align 8
  %116 = getelementptr inbounds { i64, i64 }, ptr %7, i32 0, i32 1
  %117 = load i64, ptr %116, align 8
  %118 = getelementptr inbounds { i64, i64 }, ptr %16, i32 0, i32 0
  %119 = load i64, ptr %118, align 8
  %120 = getelementptr inbounds { i64, i64 }, ptr %16, i32 0, i32 1
  %121 = load i64, ptr %120, align 8
  %122 = call i32 @JS_SetPropertyStr(ptr noundef %107, i64 %115, i64 %117, ptr noundef @.str.14, i64 %119, i64 %121)
  %123 = load ptr, ptr %4, align 8
  %124 = load ptr, ptr %4, align 8
  %125 = call { i64, i64 } @JS_NewCFunction(ptr noundef %124, ptr noundef @js_loadScript, ptr noundef @.str.15, i32 noundef 1)
  %126 = getelementptr inbounds { i64, i64 }, ptr %17, i32 0, i32 0
  %127 = extractvalue { i64, i64 } %125, 0
  store i64 %127, ptr %126, align 8
  %128 = getelementptr inbounds { i64, i64 }, ptr %17, i32 0, i32 1
  %129 = extractvalue { i64, i64 } %125, 1
  store i64 %129, ptr %128, align 8
  %130 = getelementptr inbounds { i64, i64 }, ptr %7, i32 0, i32 0
  %131 = load i64, ptr %130, align 8
  %132 = getelementptr inbounds { i64, i64 }, ptr %7, i32 0, i32 1
  %133 = load i64, ptr %132, align 8
  %134 = getelementptr inbounds { i64, i64 }, ptr %17, i32 0, i32 0
  %135 = load i64, ptr %134, align 8
  %136 = getelementptr inbounds { i64, i64 }, ptr %17, i32 0, i32 1
  %137 = load i64, ptr %136, align 8
  %138 = call i32 @JS_SetPropertyStr(ptr noundef %123, i64 %131, i64 %133, ptr noundef @.str.15, i64 %135, i64 %137)
  %139 = load ptr, ptr %4, align 8
  %140 = getelementptr inbounds { i64, i64 }, ptr %7, i32 0, i32 0
  %141 = load i64, ptr %140, align 8
  %142 = getelementptr inbounds { i64, i64 }, ptr %7, i32 0, i32 1
  %143 = load i64, ptr %142, align 8
  call void @JS_FreeValue(ptr noundef %139, i64 %141, i64 %143)
  ret void
}