; Function Attrs: nounwind uwtable
define dso_local void @js_std_add_helpers(ptr noundef %0, i32 noundef %1, ptr nocapture noundef readonly %2) local_unnamed_addr #0 {
  %4 = tail call { i64, i64 } @JS_GetGlobalObject(ptr noundef %0) #29
  %5 = extractvalue { i64, i64 } %4, 0
  %6 = extractvalue { i64, i64 } %4, 1
  %7 = tail call { i64, i64 } @JS_NewObject(ptr noundef %0) #29
  %8 = extractvalue { i64, i64 } %7, 0
  %9 = extractvalue { i64, i64 } %7, 1
  %10 = tail call { i64, i64 } @JS_NewCFunction2(ptr noundef %0, ptr noundef nonnull @js_print, ptr noundef nonnull @.str.11, i32 noundef 1, i32 noundef 0, i32 noundef 0) #29
  %11 = extractvalue { i64, i64 } %10, 0
  %12 = extractvalue { i64, i64 } %10, 1
  %13 = tail call i32 @JS_SetPropertyStr(ptr noundef %0, i64 %8, i64 %9, ptr noundef nonnull @.str.11, i64 %11, i64 %12) #29
  %14 = tail call i32 @JS_SetPropertyStr(ptr noundef %0, i64 %5, i64 %6, ptr noundef nonnull @.str.12, i64 %8, i64 %9) #29
  %15 = icmp sgt i32 %1, -1
  br i1 %15, label %16, label %28

16:                                               ; preds = %3
  %17 = tail call { i64, i64 } @JS_NewArray(ptr noundef %0) #29
  %18 = extractvalue { i64, i64 } %17, 0
  %19 = extractvalue { i64, i64 } %17, 1
  %.not = icmp eq i32 %1, 0
  br i1 %.not, label %._crit_edge, label %.lr.ph.preheader

.lr.ph.preheader:                                 ; preds = %16
  %wide.trip.count = zext nneg i32 %1 to i64
  br label %.lr.ph

.lr.ph:                                           ; preds = %.lr.ph.preheader, %.lr.ph
  %indvars.iv = phi i64 [ 0, %.lr.ph.preheader ], [ %indvars.iv.next, %.lr.ph ]
  %20 = getelementptr ptr, ptr %2, i64 %indvars.iv
  %21 = load ptr, ptr %20, align 8
  %22 = tail call { i64, i64 } @JS_NewString(ptr noundef %0, ptr noundef %21) #29
  %23 = extractvalue { i64, i64 } %22, 0
  %24 = extractvalue { i64, i64 } %22, 1
  %25 = trunc i64 %indvars.iv to i32
  %26 = tail call i32 @JS_SetPropertyUint32(ptr noundef %0, i64 %18, i64 %19, i32 noundef %25, i64 %23, i64 %24) #29
  %indvars.iv.next = add nuw nsw i64 %indvars.iv, 1
  %exitcond.not = icmp eq i64 %indvars.iv.next, %wide.trip.count
  br i1 %exitcond.not, label %._crit_edge, label %.lr.ph, !llvm.loop !8

._crit_edge:                                      ; preds = %.lr.ph, %16
  %27 = tail call i32 @JS_SetPropertyStr(ptr noundef %0, i64 %5, i64 %6, ptr noundef nonnull @.str.13, i64 %18, i64 %19) #29
  br label %28

28:                                               ; preds = %._crit_edge, %3
  %29 = tail call { i64, i64 } @JS_NewCFunction2(ptr noundef %0, ptr noundef nonnull @js_print, ptr noundef nonnull @.str.14, i32 noundef 1, i32 noundef 0, i32 noundef 0) #29
  %30 = extractvalue { i64, i64 } %29, 0
  %31 = extractvalue { i64, i64 } %29, 1
  %32 = tail call i32 @JS_SetPropertyStr(ptr noundef %0, i64 %5, i64 %6, ptr noundef nonnull @.str.14, i64 %30, i64 %31) #29
  %33 = tail call { i64, i64 } @JS_NewCFunction2(ptr noundef %0, ptr noundef nonnull @js_loadScript, ptr noundef nonnull @.str.15, i32 noundef 1, i32 noundef 0, i32 noundef 0) #29
  %34 = extractvalue { i64, i64 } %33, 0
  %35 = extractvalue { i64, i64 } %33, 1
  %36 = tail call i32 @JS_SetPropertyStr(ptr noundef %0, i64 %5, i64 %6, ptr noundef nonnull @.str.15, i64 %34, i64 %35) #29
  %37 = trunc i64 %6 to i32
  %38 = icmp ugt i32 %37, -12
  br i1 %38, label %39, label %JS_FreeValue.exit

39:                                               ; preds = %28
  %40 = inttoptr i64 %5 to ptr
  %41 = load i32, ptr %40, align 4
  %42 = add i32 %41, -1
  store i32 %42, ptr %40, align 4
  %43 = icmp slt i32 %42, 1
  br i1 %43, label %44, label %JS_FreeValue.exit

44:                                               ; preds = %39
  tail call void @__JS_FreeValue(ptr noundef %0, i64 %5, i64 %6) #29
  br label %JS_FreeValue.exit

JS_FreeValue.exit:                                ; preds = %28, %39, %44
  ret void
}